; Function Attrs: mustprogress uwtable
define dso_local noundef zeroext i1 @_ZN4Json9OurReader12decodeDoubleERNS0_5TokenE(ptr noundef nonnull align 8 dereferenceable(281) %0, ptr nocapture noundef nonnull readonly align 8 dereferenceable(24) %1) local_unnamed_addr #2 align 2 personality ptr @__gxx_personality_v0 {
  %3 = alloca %"class.Json::Value", align 8
  %4 = getelementptr inbounds i8, ptr %3, i64 8
  store i16 0, ptr %4, align 8
  %5 = getelementptr inbounds i8, ptr %3, i64 16
  call void @llvm.memset.p0.i64(ptr noundef nonnull align 8 dereferenceable(16) %5, i8 0, i64 16, i1 false)
  %6 = invoke noundef zeroext i1 @_ZN4Json9OurReader12decodeDoubleERNS0_5TokenERNS_5ValueE(ptr noundef nonnull align 8 dereferenceable(281) %0, ptr noundef nonnull align 8 dereferenceable(24) %1, ptr noundef nonnull align 8 dereferenceable(32) %3)
          to label %7 unwind label %8

7:                                                ; preds = %2
  br i1 %6, label %10, label %36

8:                                                ; preds = %2
  %9 = landingpad { ptr, i32 }
          cleanup
  call void @_ZN4Json5ValueD2Ev(ptr noundef nonnull align 8 dereferenceable(32) %3) #39
  resume { ptr, i32 } %9

10:                                               ; preds = %7
  %11 = getelementptr inbounds i8, ptr %0, i64 48
  %12 = load ptr, ptr %11, align 8, !noalias !171
  %13 = getelementptr inbounds i8, ptr %0, i64 56
  %14 = load ptr, ptr %13, align 8, !noalias !171
  %15 = icmp eq ptr %12, %14
  br i1 %15, label %16, label %22

16:                                               ; preds = %10
  %17 = getelementptr inbounds i8, ptr %0, i64 72
  %18 = load ptr, ptr %17, align 8, !noalias !171
  %19 = getelementptr inbounds i8, ptr %18, i64 -8
  %20 = load ptr, ptr %19, align 8
  %21 = getelementptr inbounds i8, ptr %20, i64 512
  br label %22

22:                                               ; preds = %16, %10
  %23 = phi ptr [ %21, %16 ], [ %12, %10 ]
  %24 = getelementptr inbounds i8, ptr %23, i64 -8
  %25 = load ptr, ptr %24, align 8
  %26 = getelementptr inbounds i8, ptr %25, i64 8
  %27 = load i16, ptr %26, align 8
  %28 = load i16, ptr %4, align 8
  %29 = and i16 %27, -512
  %30 = and i16 %28, -512
  %.sroa.0.0.copyload.i.i = load i64, ptr %25, align 8
  %31 = load i64, ptr %3, align 8
  store i64 %31, ptr %25, align 8
  store i64 %.sroa.0.0.copyload.i.i, ptr %3, align 8
  %32 = and i16 %28, 511
  %33 = or disjoint i16 %32, %29
  store i16 %33, ptr %26, align 8
  %34 = and i16 %27, 511
  %35 = or disjoint i16 %30, %34
  store i16 %35, ptr %4, align 8
  br label %36

36:                                               ; preds = %7, %22
  call void @_ZN4Json5ValueD2Ev(ptr noundef nonnull align 8 dereferenceable(32) %3) #39
  ret i1 %6
}